; Function Attrs: mustprogress nofree nounwind uwtable
define void @u_versionFromString_77(ptr noundef writeonly %0, ptr noundef %1) local_unnamed_addr #10 {
  %3 = alloca ptr, align 8
  call void @llvm.lifetime.start.p0(i64 8, ptr nonnull %3) #32
  %4 = icmp eq ptr %0, null
  br i1 %4, label %.loopexit, label %5

5:                                                ; preds = %2
  %.not = icmp eq ptr %1, null
  br i1 %.not, label %.lr.ph21.preheader, label %.preheader

.preheader:                                       ; preds = %5
  %6 = call i64 @strtoul(ptr noundef nonnull %1, ptr noundef nonnull %3, i32 noundef 10) #32
  %7 = trunc i64 %6 to i8
  store i8 %7, ptr %0, align 1, !tbaa !21
  %8 = load ptr, ptr %3, align 8, !tbaa !20
  %9 = icmp eq ptr %8, %1
  br i1 %9, label %.lr.ph21.preheader, label %.lr.ph

10:                                               ; preds = %19
  %11 = getelementptr inbounds nuw i8, ptr %17, i64 1
  %12 = call i64 @strtoul(ptr noundef nonnull %11, ptr noundef nonnull %3, i32 noundef 10) #32
  %13 = trunc i64 %12 to i8
  %14 = getelementptr inbounds nuw i8, ptr %0, i64 %indvars.iv.next
  store i8 %13, ptr %14, align 1, !tbaa !21
  %15 = load ptr, ptr %3, align 8, !tbaa !20
  %16 = icmp eq ptr %15, %11
  br i1 %16, label %.loopexit14, label %.lr.ph, !llvm.loop !49

.lr.ph:                                           ; preds = %.preheader, %10
  %indvars.iv = phi i64 [ %indvars.iv.next, %10 ], [ 0, %.preheader ]
  %17 = phi ptr [ %15, %10 ], [ %8, %.preheader ]
  %indvars.iv.next = add nuw nsw i64 %indvars.iv, 1
  %18 = icmp eq i64 %indvars.iv.next, 4
  br i1 %18, label %.loopexit, label %19

19:                                               ; preds = %.lr.ph
  %20 = load i8, ptr %17, align 1, !tbaa !21
  %.not13 = icmp eq i8 %20, 46
  br i1 %.not13, label %10, label %.loopexit14

.loopexit14:                                      ; preds = %10, %19
  %21 = trunc nuw nsw i64 %indvars.iv.next to i16
  %22 = icmp samesign ult i64 %indvars.iv, 3
  br i1 %22, label %.lr.ph21.preheader, label %.loopexit

.lr.ph21.preheader:                               ; preds = %.preheader, %5, %.loopexit14
  %.027 = phi i16 [ %21, %.loopexit14 ], [ 0, %5 ], [ 0, %.preheader ]
  %23 = zext nneg i16 %.027 to i64
  %scevgep = getelementptr i8, ptr %0, i64 %23
  %narrow = sub nuw nsw i16 4, %.027
  %24 = zext nneg i16 %narrow to i64
  tail call void @llvm.memset.p0.i64(ptr align 1 %scevgep, i8 0, i64 %24, i1 false), !tbaa !21
  br label %.loopexit

.loopexit:                                        ; preds = %.lr.ph, %.lr.ph21.preheader, %.loopexit14, %2
  call void @llvm.lifetime.end.p0(i64 8, ptr nonnull %3) #32
  ret void
}